; Function Attrs: mustprogress uwtable
define void @_ZN7rocksdb15WriteController12GetStopTokenEv(ptr noalias nocapture writeonly sret(%"class.std::unique_ptr") align 8 %agg.result, ptr noundef nonnull align 8 dereferenceable(56) %this) local_unnamed_addr #0 align 2 personality ptr @__gxx_personality_v0 {
invoke.cont:
  %0 = atomicrmw add ptr %this, i32 1 seq_cst, align 4
  %call2 = tail call noalias noundef nonnull dereferenceable(16) ptr @_Znwm(i64 noundef 16) #9
  %controller_.i.i = getelementptr inbounds i8, ptr %call2, i64 8
  store ptr %this, ptr %controller_.i.i, align 8
  store ptr getelementptr inbounds ({ [4 x ptr] }, ptr @_ZTVN7rocksdb14StopWriteTokenE, i64 0, i32 0, i64 2), ptr %call2, align 8
  store ptr %call2, ptr %agg.result, align 8
  ret void
}